target datalayout = "e-m:e-p270:32:32-p271:32:32-p272:64:64-i64:64-i128:128-f80:128-n8:16:32:64-S128"
target triple = "x86_64-pc-linux-gnu"

; Function Attrs: mustprogress nounwind uwtable
define dso_local noundef i32 @_ZN11SafeOpFlags13flags_to_typeEb10SafeOpSize(i1 noundef zeroext %0, i32 noundef %1) #4 align 2 {
  %3 = alloca i32, align 4
  %4 = alloca i8, align 1
  %5 = alloca i32, align 4
  %6 = zext i1 %0 to i8
  store i8 %6, ptr %4, align 1, !tbaa !15
  store i32 %1, ptr %5, align 4, !tbaa !17
  %7 = load i8, ptr %4, align 1, !tbaa !15, !range !19, !noundef !20
  %8 = trunc i8 %7 to i1
  br i1 %8, label %9, label %18

9:                                                ; preds = %2
  %10 = load i32, ptr %5, align 4, !tbaa !17
  switch i32 %10, label %16 [
    i32 0, label %11
    i32 1, label %12
    i32 2, label %13
    i32 3, label %14
    i32 4, label %15
  ]

11:                                               ; preds = %9
  store i32 1, ptr %3, align 4
  br label %27

12:                                               ; preds = %9
  store i32 3, ptr %3, align 4
  br label %27

13:                                               ; preds = %9
  store i32 2, ptr %3, align 4
  br label %27

14:                                               ; preds = %9
  store i32 5, ptr %3, align 4
  br label %27

15:                                               ; preds = %9
  store i32 10, ptr %3, align 4
  br label %27

16:                                               ; preds = %9
  br label %17

17:                                               ; preds = %16
  br label %26

18:                                               ; preds = %2
  %19 = load i32, ptr %5, align 4, !tbaa !17
  switch i32 %19, label %24 [
    i32 0, label %20
    i32 1, label %21
    i32 2, label %22
    i32 3, label %23
  ]

20:                                               ; preds = %18
  store i32 6, ptr %3, align 4
  br label %27

21:                                               ; preds = %18
  store i32 8, ptr %3, align 4
  br label %27

22:                                               ; preds = %18
  store i32 7, ptr %3, align 4
  br label %27

23:                                               ; preds = %18
  store i32 11, ptr %3, align 4
  br label %27

24:                                               ; preds = %18
  br label %25

25:                                               ; preds = %24
  br label %26

26:                                               ; preds = %25, %17
  store i32 2, ptr %3, align 4
  br label %27

27:                                               ; preds = %26, %23, %22, %21, %20, %15, %14, %13, %12, %11
  %28 = load i32, ptr %3, align 4
  ret i32 %28
}