; Function Attrs: mustprogress nofree norecurse nosync nounwind willreturn memory(none) uwtable
define dso_local noundef range(i32 1, 12) i32 @_ZN11SafeOpFlags13flags_to_typeEb10SafeOpSize(i1 noundef zeroext %0, i32 noundef %1) local_unnamed_addr #4 align 2 {
  br i1 %0, label %3, label %5

3:                                                ; preds = %2
  %4 = icmp ult i32 %1, 5
  br i1 %4, label %switch.lookup, label %9

5:                                                ; preds = %2
  %6 = icmp ult i32 %1, 4
  br i1 %6, label %switch.lookup4, label %9

switch.lookup:                                    ; preds = %3
  %7 = zext nneg i32 %1 to i64
  %switch.gep = getelementptr inbounds nuw [5 x i32], ptr @switch.table._ZN11SafeOpFlags12get_rhs_typeEv, i64 0, i64 %7
  %switch.load = load i32, ptr %switch.gep, align 4
  br label %9

switch.lookup4:                                   ; preds = %5
  %8 = zext nneg i32 %1 to i64
  %switch.gep5 = getelementptr inbounds nuw [4 x i32], ptr @switch.table._ZN11SafeOpFlags12get_rhs_typeEv.3, i64 0, i64 %8
  %switch.load6 = load i32, ptr %switch.gep5, align 4
  br label %9

9:                                                ; preds = %3, %5, %switch.lookup4, %switch.lookup
  %.0 = phi i32 [ %switch.load, %switch.lookup ], [ %switch.load6, %switch.lookup4 ], [ 2, %5 ], [ 2, %3 ]
  ret i32 %.0
}